target datalayout = "e-m:e-p270:32:32-p271:32:32-p272:64:64-i64:64-i128:128-f80:128-n8:16:32:64-S128"
target triple = "x86_64-pc-linux-gnu"

%struct.lua_State = type { i8, i8, i8, i8, i8, i8, i8, ptr, ptr, ptr, ptr, ptr, ptr, ptr, ptr, i32, i32, i16, i16, i32, ptr, ptr, ptr, ptr, ptr }
%struct.Proto = type { i8, i8, i8, i8, i8, i8, i8, i8, ptr, ptr, ptr, ptr, ptr, i64, ptr, ptr, ptr, ptr, ptr, ptr, ptr, ptr, ptr, ptr, i32, i32, i32, i32, i32, i32, i32, i32, i32, i32 }
%struct.lua_TValue = type { %union.Value, [1 x i32], i32 }
%union.Value = type { ptr }
%struct.global_State = type { %struct.stringtable, ptr, ptr, i8, i8, ptr, ptr, ptr, i64, i64, i32, i32, i32, [40 x ptr], [40 x ptr], ptr, ptr, ptr, [256 x i64], ptr, %struct.UpVal, [11 x ptr], [11 x ptr], [21 x ptr], %struct.lua_TValue, %struct.lua_TValue, i32, ptr, i64, [4 x i64], %struct.lua_Callbacks, %struct.lua_ExecutionCallbacks, [128 x ptr], [128 x ptr], [128 x ptr], %struct.GCStats }
%struct.stringtable = type { ptr, i32, i32 }
%struct.UpVal = type { i8, i8, i8, i8, ptr, %union.anon.3 }
%union.anon.3 = type { %struct.anon.4 }
%struct.anon.4 = type { ptr, ptr, ptr }
%struct.lua_Callbacks = type { ptr, ptr, ptr, ptr, ptr, ptr, ptr, ptr, ptr, ptr }
%struct.lua_ExecutionCallbacks = type { ptr, ptr, ptr, ptr, ptr, ptr, ptr }
%struct.GCStats = type { [32 x i32], i32, i32, i64, i64, i64, double, double, double }

; Function Attrs: mustprogress nounwind uwtable
define hidden noundef i32 @_Z12luaG_getlineP5Protoi(ptr noundef %0, i32 noundef %1) #2 {
  %3 = alloca i32, align 4
  %4 = alloca ptr, align 8
  %5 = alloca i32, align 4
  store ptr %0, ptr %4, align 8, !tbaa !27
  store i32 %1, ptr %5, align 4, !tbaa !9
  %6 = load ptr, ptr %4, align 8, !tbaa !27
  %7 = getelementptr inbounds nuw %struct.Proto, ptr %6, i32 0, i32 14
  %8 = load ptr, ptr %7, align 8, !tbaa !94
  %9 = icmp ne ptr %8, null
  br i1 %9, label %11, label %10

10:                                               ; preds = %2
  store i32 0, ptr %3, align 4
  br label %32

11:                                               ; preds = %2
  %12 = load ptr, ptr %4, align 8, !tbaa !27
  %13 = getelementptr inbounds nuw %struct.Proto, ptr %12, i32 0, i32 15
  %14 = load ptr, ptr %13, align 8, !tbaa !106
  %15 = load i32, ptr %5, align 4, !tbaa !9
  %16 = load ptr, ptr %4, align 8, !tbaa !27
  %17 = getelementptr inbounds nuw %struct.Proto, ptr %16, i32 0, i32 30
  %18 = load i32, ptr %17, align 8, !tbaa !107
  %19 = ashr i32 %15, %18
  %20 = sext i32 %19 to i64
  %21 = getelementptr inbounds i32, ptr %14, i64 %20
  %22 = load i32, ptr %21, align 4, !tbaa !9
  %23 = load ptr, ptr %4, align 8, !tbaa !27
  %24 = getelementptr inbounds nuw %struct.Proto, ptr %23, i32 0, i32 14
  %25 = load ptr, ptr %24, align 8, !tbaa !94
  %26 = load i32, ptr %5, align 4, !tbaa !9
  %27 = sext i32 %26 to i64
  %28 = getelementptr inbounds i8, ptr %25, i64 %27
  %29 = load i8, ptr %28, align 1, !tbaa !37
  %30 = zext i8 %29 to i32
  %31 = add nsw i32 %22, %30
  store i32 %31, ptr %3, align 4
  br label %32

32:                                               ; preds = %11, %10
  %33 = load i32, ptr %3, align 4
  ret i32 %33
}

; Function Attrs: mustprogress uwtable
define hidden void @_Z15luaG_breakpointP9lua_StateP5Protoib(ptr noundef %0, ptr noundef %1, i32 noundef %2, i1 noundef zeroext %3) #0 {
  %5 = alloca ptr, align 8
  %6 = alloca ptr, align 8
  %7 = alloca i32, align 4
  %8 = alloca i8, align 1
  %9 = alloca ptr, align 8
  %10 = alloca i32, align 4
  %11 = alloca i32, align 4
  %12 = alloca i32, align 4
  %13 = alloca i8, align 1
  %14 = alloca i32, align 4
  store ptr %0, ptr %5, align 8, !tbaa !4
  store ptr %1, ptr %6, align 8, !tbaa !27
  store i32 %2, ptr %7, align 4, !tbaa !9
  %15 = zext i1 %3 to i8
  store i8 %15, ptr %8, align 1, !tbaa !81
  call void @llvm.lifetime.start.p0(i64 8, ptr %9) #11
  %16 = load ptr, ptr %5, align 8, !tbaa !4
  %17 = getelementptr inbounds nuw %struct.lua_State, ptr %16, i32 0, i32 9
  %18 = load ptr, ptr %17, align 8, !tbaa !82
  %19 = getelementptr inbounds nuw %struct.global_State, ptr %18, i32 0, i32 31
  %20 = getelementptr inbounds nuw %struct.lua_ExecutionCallbacks, ptr %19, i32 0, i32 4
  %21 = load ptr, ptr %20, align 8, !tbaa !83
  store ptr %21, ptr %9, align 8, !tbaa !93
  %22 = load ptr, ptr %6, align 8, !tbaa !27
  %23 = getelementptr inbounds nuw %struct.Proto, ptr %22, i32 0, i32 14
  %24 = load ptr, ptr %23, align 8, !tbaa !94
  %25 = icmp ne ptr %24, null
  br i1 %25, label %26, label %171

26:                                               ; preds = %4
  %27 = load ptr, ptr %9, align 8, !tbaa !93
  %28 = icmp ne ptr %27, null
  br i1 %28, label %34, label %29

29:                                               ; preds = %26
  %30 = load ptr, ptr %6, align 8, !tbaa !27
  %31 = getelementptr inbounds nuw %struct.Proto, ptr %30, i32 0, i32 12
  %32 = load ptr, ptr %31, align 8, !tbaa !95
  %33 = icmp ne ptr %32, null
  br i1 %33, label %171, label %34

34:                                               ; preds = %29, %26
  call void @llvm.lifetime.start.p0(i64 4, ptr %10) #11
  store i32 0, ptr %10, align 4, !tbaa !9
  br label %35

35:                                               ; preds = %166, %34
  %36 = load i32, ptr %10, align 4, !tbaa !9
  %37 = load ptr, ptr %6, align 8, !tbaa !27
  %38 = getelementptr inbounds nuw %struct.Proto, ptr %37, i32 0, i32 24
  %39 = load i32, ptr %38, align 8, !tbaa !96
  %40 = icmp slt i32 %36, %39
  br i1 %40, label %42, label %41

41:                                               ; preds = %35
  store i32 2, ptr %11, align 4
  br label %169

42:                                               ; preds = %35
  %43 = load ptr, ptr %6, align 8, !tbaa !27
  %44 = getelementptr inbounds nuw %struct.Proto, ptr %43, i32 0, i32 9
  %45 = load ptr, ptr %44, align 8, !tbaa !51
  %46 = load i32, ptr %10, align 4, !tbaa !9
  %47 = sext i32 %46 to i64
  %48 = getelementptr inbounds i32, ptr %45, i64 %47
  %49 = load i32, ptr %48, align 4, !tbaa !9
  %50 = and i32 %49, 255
  %51 = icmp eq i32 %50, 65
  br i1 %51, label %52, label %53

52:                                               ; preds = %42
  br label %166

53:                                               ; preds = %42
  %54 = load ptr, ptr %6, align 8, !tbaa !27
  %55 = load i32, ptr %10, align 4, !tbaa !9
  %56 = call noundef i32 @_Z12luaG_getlineP5Protoi(ptr noundef %54, i32 noundef %55)
  %57 = load i32, ptr %7, align 4, !tbaa !9
  %58 = icmp ne i32 %56, %57
  br i1 %58, label %59, label %60

59:                                               ; preds = %53
  br label %166

60:                                               ; preds = %53
  %61 = load ptr, ptr %6, align 8, !tbaa !27
  %62 = getelementptr inbounds nuw %struct.Proto, ptr %61, i32 0, i32 20
  %63 = load ptr, ptr %62, align 8, !tbaa !97
  %64 = icmp ne ptr %63, null
  br i1 %64, label %116, label %65

65:                                               ; preds = %60
  %66 = load ptr, ptr %5, align 8, !tbaa !4
  %67 = load ptr, ptr %6, align 8, !tbaa !27
  %68 = getelementptr inbounds nuw %struct.Proto, ptr %67, i32 0, i32 24
  %69 = load i32, ptr %68, align 8, !tbaa !96
  %70 = sext i32 %69 to i64
  %71 = icmp ule i64 %70, -1
  br i1 %71, label %72, label %78

72:                                               ; preds = %65
  %73 = load ptr, ptr %6, align 8, !tbaa !27
  %74 = getelementptr inbounds nuw %struct.Proto, ptr %73, i32 0, i32 24
  %75 = load i32, ptr %74, align 8, !tbaa !96
  %76 = sext i32 %75 to i64
  %77 = mul i64 %76, 1
  br label %81

78:                                               ; preds = %65
  %79 = load ptr, ptr %5, align 8, !tbaa !4
  call void @_Z11luaM_toobigP9lua_State(ptr noundef %79) #12
  unreachable

80:                                               ; No predecessors!
  br label %81

81:                                               ; preds = %80, %72
  %82 = phi i64 [ %77, %72 ], [ -1, %80 ]
  %83 = load ptr, ptr %6, align 8, !tbaa !27
  %84 = getelementptr inbounds nuw %struct.Proto, ptr %83, i32 0, i32 2
  %85 = load i8, ptr %84, align 2, !tbaa !98
  %86 = call noundef ptr @_Z9luaM_new_P9lua_Statemh(ptr noundef %66, i64 noundef %82, i8 noundef zeroext %85)
  %87 = load ptr, ptr %6, align 8, !tbaa !27
  %88 = getelementptr inbounds nuw %struct.Proto, ptr %87, i32 0, i32 20
  store ptr %86, ptr %88, align 8, !tbaa !97
  call void @llvm.lifetime.start.p0(i64 4, ptr %12) #11
  store i32 0, ptr %12, align 4, !tbaa !9
  br label %89

89:                                               ; preds = %112, %81
  %90 = load i32, ptr %12, align 4, !tbaa !9
  %91 = load ptr, ptr %6, align 8, !tbaa !27
  %92 = getelementptr inbounds nuw %struct.Proto, ptr %91, i32 0, i32 24
  %93 = load i32, ptr %92, align 8, !tbaa !96
  %94 = icmp slt i32 %90, %93
  br i1 %94, label %96, label %95

95:                                               ; preds = %89
  store i32 5, ptr %11, align 4
  call void @llvm.lifetime.end.p0(i64 4, ptr %12) #11
  br label %115

96:                                               ; preds = %89
  %97 = load ptr, ptr %6, align 8, !tbaa !27
  %98 = getelementptr inbounds nuw %struct.Proto, ptr %97, i32 0, i32 9
  %99 = load ptr, ptr %98, align 8, !tbaa !51
  %100 = load i32, ptr %12, align 4, !tbaa !9
  %101 = sext i32 %100 to i64
  %102 = getelementptr inbounds i32, ptr %99, i64 %101
  %103 = load i32, ptr %102, align 4, !tbaa !9
  %104 = and i32 %103, 255
  %105 = trunc i32 %104 to i8
  %106 = load ptr, ptr %6, align 8, !tbaa !27
  %107 = getelementptr inbounds nuw %struct.Proto, ptr %106, i32 0, i32 20
  %108 = load ptr, ptr %107, align 8, !tbaa !97
  %109 = load i32, ptr %12, align 4, !tbaa !9
  %110 = sext i32 %109 to i64
  %111 = getelementptr inbounds i8, ptr %108, i64 %110
  store i8 %105, ptr %111, align 1, !tbaa !37
  br label %112

112:                                              ; preds = %96
  %113 = load i32, ptr %12, align 4, !tbaa !9
  %114 = add nsw i32 %113, 1
  store i32 %114, ptr %12, align 4, !tbaa !9
  br label %89, !llvm.loop !99

115:                                              ; preds = %95
  br label %116

116:                                              ; preds = %115, %60
  call void @llvm.lifetime.start.p0(i64 1, ptr %13) #11
  %117 = load i8, ptr %8, align 1, !tbaa !81, !range !100, !noundef !101
  %118 = trunc i8 %117 to i1
  br i1 %118, label %119, label %120

119:                                              ; preds = %116
  br label %130

120:                                              ; preds = %116
  %121 = load ptr, ptr %6, align 8, !tbaa !27
  %122 = getelementptr inbounds nuw %struct.Proto, ptr %121, i32 0, i32 20
  %123 = load ptr, ptr %122, align 8, !tbaa !97
  %124 = load i32, ptr %10, align 4, !tbaa !9
  %125 = sext i32 %124 to i64
  %126 = getelementptr inbounds i8, ptr %123, i64 %125
  %127 = load i8, ptr %126, align 1, !tbaa !37
  %128 = zext i8 %127 to i32
  %129 = and i32 %128, 255
  br label %130

130:                                              ; preds = %120, %119
  %131 = phi i32 [ 1, %119 ], [ %129, %120 ]
  %132 = trunc i32 %131 to i8
  store i8 %132, ptr %13, align 1, !tbaa !37
  %133 = load ptr, ptr %6, align 8, !tbaa !27
  %134 = getelementptr inbounds nuw %struct.Proto, ptr %133, i32 0, i32 9
  %135 = load ptr, ptr %134, align 8, !tbaa !51
  %136 = load i32, ptr %10, align 4, !tbaa !9
  %137 = sext i32 %136 to i64
  %138 = getelementptr inbounds i32, ptr %135, i64 %137
  %139 = load i32, ptr %138, align 4, !tbaa !9
  %140 = and i32 %139, -256
  store i32 %140, ptr %138, align 4, !tbaa !9
  %141 = load i8, ptr %13, align 1, !tbaa !37
  %142 = zext i8 %141 to i32
  %143 = load ptr, ptr %6, align 8, !tbaa !27
  %144 = getelementptr inbounds nuw %struct.Proto, ptr %143, i32 0, i32 9
  %145 = load ptr, ptr %144, align 8, !tbaa !51
  %146 = load i32, ptr %10, align 4, !tbaa !9
  %147 = sext i32 %146 to i64
  %148 = getelementptr inbounds i32, ptr %145, i64 %147
  %149 = load i32, ptr %148, align 4, !tbaa !9
  %150 = or i32 %149, %142
  store i32 %150, ptr %148, align 4, !tbaa !9
  %151 = load i8, ptr %8, align 1, !tbaa !81, !range !100, !noundef !101
  %152 = trunc i8 %151 to i1
  br i1 %152, label %153, label %165

153:                                              ; preds = %130
  %154 = load ptr, ptr %6, align 8, !tbaa !27
  %155 = getelementptr inbounds nuw %struct.Proto, ptr %154, i32 0, i32 12
  %156 = load ptr, ptr %155, align 8, !tbaa !95
  %157 = icmp ne ptr %156, null
  br i1 %157, label %158, label %165

158:                                              ; preds = %153
  %159 = load ptr, ptr %9, align 8, !tbaa !93
  %160 = icmp ne ptr %159, null
  br i1 %160, label %161, label %165

161:                                              ; preds = %158
  %162 = load ptr, ptr %9, align 8, !tbaa !93
  %163 = load ptr, ptr %5, align 8, !tbaa !4
  %164 = load ptr, ptr %6, align 8, !tbaa !27
  call void %162(ptr noundef %163, ptr noundef %164)
  br label %165

165:                                              ; preds = %161, %158, %153, %130
  store i32 2, ptr %11, align 4
  call void @llvm.lifetime.end.p0(i64 1, ptr %13) #11
  br label %169

166:                                              ; preds = %59, %52
  %167 = load i32, ptr %10, align 4, !tbaa !9
  %168 = add nsw i32 %167, 1
  store i32 %168, ptr %10, align 4, !tbaa !9
  br label %35, !llvm.loop !102

169:                                              ; preds = %165, %41
  call void @llvm.lifetime.end.p0(i64 4, ptr %10) #11
  br label %170

170:                                              ; preds = %169
  br label %171

171:                                              ; preds = %170, %29, %4
  call void @llvm.lifetime.start.p0(i64 4, ptr %14) #11
  store i32 0, ptr %14, align 4, !tbaa !9
  br label %172

172:                                              ; preds = %191, %171
  %173 = load i32, ptr %14, align 4, !tbaa !9
  %174 = load ptr, ptr %6, align 8, !tbaa !27
  %175 = getelementptr inbounds nuw %struct.Proto, ptr %174, i32 0, i32 25
  %176 = load i32, ptr %175, align 4, !tbaa !103
  %177 = icmp slt i32 %173, %176
  br i1 %177, label %179, label %178

178:                                              ; preds = %172
  store i32 8, ptr %11, align 4
  call void @llvm.lifetime.end.p0(i64 4, ptr %14) #11
  br label %194

179:                                              ; preds = %172
  %180 = load ptr, ptr %5, align 8, !tbaa !4
  %181 = load ptr, ptr %6, align 8, !tbaa !27
  %182 = getelementptr inbounds nuw %struct.Proto, ptr %181, i32 0, i32 10
  %183 = load ptr, ptr %182, align 8, !tbaa !104
  %184 = load i32, ptr %14, align 4, !tbaa !9
  %185 = sext i32 %184 to i64
  %186 = getelementptr inbounds ptr, ptr %183, i64 %185
  %187 = load ptr, ptr %186, align 8, !tbaa !27
  %188 = load i32, ptr %7, align 4, !tbaa !9
  %189 = load i8, ptr %8, align 1, !tbaa !81, !range !100, !noundef !101
  %190 = trunc i8 %189 to i1
  call void @_Z15luaG_breakpointP9lua_StateP5Protoib(ptr noundef %180, ptr noundef %187, i32 noundef %188, i1 noundef zeroext %190)
  br label %191

191:                                              ; preds = %179
  %192 = load i32, ptr %14, align 4, !tbaa !9
  %193 = add nsw i32 %192, 1
  store i32 %193, ptr %14, align 4, !tbaa !9
  br label %172, !llvm.loop !105

194:                                              ; preds = %178
  call void @llvm.lifetime.end.p0(i64 8, ptr %9) #11
  ret void
}