; Function Attrs: mustprogress uwtable
define hidden void @_Z15luaG_breakpointP9lua_StateP5Protoib(ptr noundef %0, ptr noundef %1, i32 noundef %2, i1 noundef zeroext %3) local_unnamed_addr #0 {
  %5 = getelementptr inbounds nuw i8, ptr %0, i64 24
  %6 = load ptr, ptr %5, align 8, !tbaa !71
  %7 = getelementptr inbounds nuw i8, ptr %6, i64 3400
  %8 = load ptr, ptr %7, align 8, !tbaa !72
  %9 = getelementptr inbounds nuw i8, ptr %1, i64 56
  %10 = load ptr, ptr %9, align 8, !tbaa !57
  %.not = icmp eq ptr %10, null
  br i1 %.not, label %.loopexit54, label %11

11:                                               ; preds = %4
  %12 = icmp ne ptr %8, null
  br i1 %12, label %16, label %13

13:                                               ; preds = %11
  %14 = getelementptr inbounds nuw i8, ptr %1, i64 40
  %15 = load ptr, ptr %14, align 8, !tbaa !83
  %.not51 = icmp eq ptr %15, null
  br i1 %.not51, label %16, label %.loopexit54

16:                                               ; preds = %13, %11
  %17 = getelementptr inbounds nuw i8, ptr %1, i64 136
  %18 = load i32, ptr %17, align 8, !tbaa !84
  %19 = icmp sgt i32 %18, 0
  br i1 %19, label %.lr.ph, label %.loopexit54

.lr.ph:                                           ; preds = %16
  %20 = getelementptr inbounds nuw i8, ptr %1, i64 16
  %21 = load ptr, ptr %20, align 8, !tbaa !40
  %22 = getelementptr inbounds nuw i8, ptr %1, i64 64
  %23 = getelementptr inbounds nuw i8, ptr %1, i64 160
  %wide.trip.count = zext nneg i32 %18 to i64
  br label %24

24:                                               ; preds = %.lr.ph, %77
  %indvars.iv = phi i64 [ 0, %.lr.ph ], [ %indvars.iv.next, %77 ]
  %25 = getelementptr inbounds nuw i32, ptr %21, i64 %indvars.iv
  %26 = load i32, ptr %25, align 4, !tbaa !46
  %27 = and i32 %26, 255
  %28 = icmp eq i32 %27, 65
  br i1 %28, label %77, label %_Z12luaG_getlineP5Protoi.exit

_Z12luaG_getlineP5Protoi.exit:                    ; preds = %24
  %29 = load ptr, ptr %22, align 8, !tbaa !58
  %30 = load i32, ptr %23, align 8, !tbaa !59
  %31 = trunc nuw nsw i64 %indvars.iv to i32
  %32 = lshr i32 %31, %30
  %33 = zext nneg i32 %32 to i64
  %34 = getelementptr inbounds nuw i32, ptr %29, i64 %33
  %35 = load i32, ptr %34, align 4, !tbaa !46
  %36 = getelementptr inbounds nuw i8, ptr %10, i64 %indvars.iv
  %37 = load i8, ptr %36, align 1, !tbaa !26
  %38 = zext i8 %37 to i32
  %39 = add nsw i32 %35, %38
  %.not52 = icmp eq i32 %39, %2
  br i1 %.not52, label %40, label %77

40:                                               ; preds = %_Z12luaG_getlineP5Protoi.exit
  %41 = getelementptr inbounds nuw i8, ptr %1, i64 104
  %42 = load ptr, ptr %41, align 8, !tbaa !85
  %.not53 = icmp eq ptr %42, null
  br i1 %.not53, label %43, label %.loopexit

43:                                               ; preds = %40
  %44 = getelementptr inbounds nuw i8, ptr %1, i64 2
  %45 = load i8, ptr %44, align 2, !tbaa !86
  %46 = tail call noundef ptr @_Z9luaM_new_P9lua_Statemh(ptr noundef %0, i64 noundef %wide.trip.count, i8 noundef zeroext %45)
  store ptr %46, ptr %41, align 8, !tbaa !85
  %47 = load i32, ptr %17, align 8, !tbaa !84
  %48 = icmp sgt i32 %47, 0
  br i1 %48, label %.lr.ph62, label %.loopexit

.lr.ph62:                                         ; preds = %43, %.lr.ph62
  %indvars.iv67 = phi i64 [ %indvars.iv.next68, %.lr.ph62 ], [ 0, %43 ]
  %49 = load ptr, ptr %20, align 8, !tbaa !40
  %50 = getelementptr inbounds nuw i32, ptr %49, i64 %indvars.iv67
  %51 = load i32, ptr %50, align 4, !tbaa !46
  %52 = trunc i32 %51 to i8
  %53 = load ptr, ptr %41, align 8, !tbaa !85
  %54 = getelementptr inbounds nuw i8, ptr %53, i64 %indvars.iv67
  store i8 %52, ptr %54, align 1, !tbaa !26
  %indvars.iv.next68 = add nuw nsw i64 %indvars.iv67, 1
  %55 = load i32, ptr %17, align 8, !tbaa !84
  %56 = sext i32 %55 to i64
  %57 = icmp slt i64 %indvars.iv.next68, %56
  br i1 %57, label %.lr.ph62, label %.loopexit, !llvm.loop !87

.loopexit:                                        ; preds = %.lr.ph62, %43, %40
  br i1 %3, label %.critedge, label %58

58:                                               ; preds = %.loopexit
  %59 = load ptr, ptr %41, align 8, !tbaa !85
  %60 = getelementptr inbounds nuw i8, ptr %59, i64 %indvars.iv
  %61 = load i8, ptr %60, align 1, !tbaa !26
  %62 = zext i8 %61 to i32
  %63 = load ptr, ptr %20, align 8, !tbaa !40
  %64 = getelementptr inbounds nuw i32, ptr %63, i64 %indvars.iv
  %65 = load i32, ptr %64, align 4, !tbaa !46
  %66 = and i32 %65, -256
  %67 = or disjoint i32 %66, %62
  store i32 %67, ptr %64, align 4, !tbaa !46
  br label %.loopexit54

.critedge:                                        ; preds = %.loopexit
  %68 = load ptr, ptr %20, align 8, !tbaa !40
  %69 = getelementptr inbounds nuw i32, ptr %68, i64 %indvars.iv
  %70 = load i32, ptr %69, align 4, !tbaa !46
  %71 = and i32 %70, -256
  %72 = or disjoint i32 %71, 1
  store i32 %72, ptr %69, align 4, !tbaa !46
  %73 = getelementptr inbounds nuw i8, ptr %1, i64 40
  %74 = load ptr, ptr %73, align 8, !tbaa !83
  %75 = icmp ne ptr %74, null
  %or.cond = and i1 %12, %75
  br i1 %or.cond, label %76, label %.loopexit54

76:                                               ; preds = %.critedge
  tail call void %8(ptr noundef %0, ptr noundef nonnull %1)
  br label %.loopexit54

77:                                               ; preds = %_Z12luaG_getlineP5Protoi.exit, %24
  %indvars.iv.next = add nuw nsw i64 %indvars.iv, 1
  %exitcond.not = icmp eq i64 %indvars.iv.next, %wide.trip.count
  br i1 %exitcond.not, label %.loopexit54, label %24, !llvm.loop !88

.loopexit54:                                      ; preds = %77, %16, %58, %76, %.critedge, %13, %4
  %78 = getelementptr inbounds nuw i8, ptr %1, i64 140
  %79 = load i32, ptr %78, align 4, !tbaa !89
  %80 = icmp sgt i32 %79, 0
  br i1 %80, label %.lr.ph64, label %._crit_edge

.lr.ph64:                                         ; preds = %.loopexit54
  %81 = getelementptr inbounds nuw i8, ptr %1, i64 24
  br label %82

._crit_edge:                                      ; preds = %82, %.loopexit54
  ret void

82:                                               ; preds = %.lr.ph64, %82
  %indvars.iv70 = phi i64 [ 0, %.lr.ph64 ], [ %indvars.iv.next71, %82 ]
  %83 = load ptr, ptr %81, align 8, !tbaa !90
  %84 = getelementptr inbounds nuw ptr, ptr %83, i64 %indvars.iv70
  %85 = load ptr, ptr %84, align 8, !tbaa !91
  tail call void @_Z15luaG_breakpointP9lua_StateP5Protoib(ptr noundef %0, ptr noundef %85, i32 noundef %2, i1 noundef zeroext %3)
  %indvars.iv.next71 = add nuw nsw i64 %indvars.iv70, 1
  %86 = load i32, ptr %78, align 4, !tbaa !89
  %87 = sext i32 %86 to i64
  %88 = icmp slt i64 %indvars.iv.next71, %87
  br i1 %88, label %82, label %._crit_edge, !llvm.loop !93
}